; Function Attrs: mustprogress uwtable
define void @proj_log_func(ptr noundef writeonly %0, ptr noundef %1, ptr noundef %2) local_unnamed_addr #3 {
  %4 = icmp eq ptr %0, null
  br i1 %4, label %5, label %7

5:                                                ; preds = %3
  %6 = tail call noundef ptr @_Z18pj_get_default_ctxv()
  br label %7

7:                                                ; preds = %5, %3
  %.0 = phi ptr [ %6, %5 ], [ %0, %3 ]
  %8 = getelementptr inbounds i8, ptr %.0, i64 56
  store ptr %1, ptr %8, align 8
  %.not = icmp eq ptr %2, null
  br i1 %.not, label %11, label %9

9:                                                ; preds = %7
  %10 = getelementptr inbounds i8, ptr %.0, i64 48
  store ptr %2, ptr %10, align 8
  br label %11

11:                                               ; preds = %9, %7
  ret void
}